target datalayout = "e-m:e-p270:32:32-p271:32:32-p272:64:64-i64:64-i128:128-f80:128-n8:16:32:64-S128"
target triple = "x86_64-pc-linux-gnu"

%struct.ps_prochandle = type { ptr, i32, i32, ptr, ptr, i32, ptr, ptr }
%struct.thread_info = type { i32, %struct.user_regs_struct, ptr }
%struct.user_regs_struct = type { i64, i64, i64, i64, i64, i64, i64, i64, i64, i64, i64, i64, i64, i64, i64, i64, i64, i64, i64, i64, i64, i64, i64, i64, i64, i64, i64 }

; Function Attrs: nounwind uwtable
define internal i32 @core_get_lwp_regs(ptr noundef %0, i32 noundef %1, ptr noundef %2) #0 {
  %4 = alloca i32, align 4
  %5 = alloca ptr, align 8
  %6 = alloca i32, align 4
  %7 = alloca ptr, align 8
  %8 = alloca ptr, align 8
  store ptr %0, ptr %5, align 8
  store i32 %1, ptr %6, align 4
  store ptr %2, ptr %7, align 8
  %9 = load ptr, ptr %5, align 8
  %10 = getelementptr inbounds %struct.ps_prochandle, ptr %9, i32 0, i32 6
  %11 = load ptr, ptr %10, align 8
  store ptr %11, ptr %8, align 8
  br label %12

12:                                               ; preds = %25, %3
  %13 = load ptr, ptr %8, align 8
  %14 = icmp ne ptr %13, null
  br i1 %14, label %15, label %29

15:                                               ; preds = %12
  %16 = load ptr, ptr %8, align 8
  %17 = getelementptr inbounds %struct.thread_info, ptr %16, i32 0, i32 0
  %18 = load i32, ptr %17, align 8
  %19 = load i32, ptr %6, align 4
  %20 = icmp eq i32 %18, %19
  br i1 %20, label %21, label %25

21:                                               ; preds = %15
  %22 = load ptr, ptr %7, align 8
  %23 = load ptr, ptr %8, align 8
  %24 = getelementptr inbounds %struct.thread_info, ptr %23, i32 0, i32 1
  call void @llvm.memcpy.p0.p0.i64(ptr align 8 %22, ptr align 8 %24, i64 216, i1 false)
  store i32 1, ptr %4, align 4
  br label %30

25:                                               ; preds = %15
  %26 = load ptr, ptr %8, align 8
  %27 = getelementptr inbounds %struct.thread_info, ptr %26, i32 0, i32 2
  %28 = load ptr, ptr %27, align 8
  store ptr %28, ptr %8, align 8
  br label %12, !llvm.loop !14

29:                                               ; preds = %12
  store i32 0, ptr %4, align 4
  br label %30

30:                                               ; preds = %29, %21
  %31 = load i32, ptr %4, align 4
  ret i32 %31
}