; Function Attrs: nofree norecurse nosync nounwind memory(readwrite, inaccessiblemem: none) uwtable
define internal range(i32 0, 2) i32 @core_get_lwp_regs(ptr nocapture noundef readonly %0, i32 noundef %1, ptr nocapture noundef writeonly %2) #6 {
  %4 = getelementptr inbounds i8, ptr %0, i64 40
  %.09 = load ptr, ptr %4, align 8
  %.not10 = icmp eq ptr %.09, null
  br i1 %.not10, label %.loopexit, label %.lr.ph

.lr.ph:                                           ; preds = %3, %9
  %.011 = phi ptr [ %.0, %9 ], [ %.09, %3 ]
  %5 = load i32, ptr %.011, align 8
  %6 = icmp eq i32 %5, %1
  br i1 %6, label %7, label %9

7:                                                ; preds = %.lr.ph
  %8 = getelementptr inbounds i8, ptr %.011, i64 8
  tail call void @llvm.memcpy.p0.p0.i64(ptr noundef nonnull align 8 dereferenceable(216) %2, ptr noundef nonnull align 8 dereferenceable(216) %8, i64 216, i1 false)
  br label %.loopexit

9:                                                ; preds = %.lr.ph
  %10 = getelementptr inbounds i8, ptr %.011, i64 224
  %.0 = load ptr, ptr %10, align 8
  %.not = icmp eq ptr %.0, null
  br i1 %.not, label %.loopexit, label %.lr.ph, !llvm.loop !16

.loopexit:                                        ; preds = %9, %3, %7
  %.07 = phi i32 [ 1, %7 ], [ 0, %3 ], [ 0, %9 ]
  ret i32 %.07
}